target datalayout = "e-m:e-p270:32:32-p271:32:32-p272:64:64-i64:64-i128:128-f80:128-n8:16:32:64-S128"
target triple = "x86_64-pc-linux-gnu"

%struct.excl_count_t = type { ptr, i32 }

; Function Attrs: nounwind uwtable
define internal i32 @_get_list_excl_count(ptr noundef %0, ptr noundef %1) #0 {
  %3 = alloca ptr, align 8
  %4 = alloca ptr, align 8
  %5 = alloca ptr, align 8
  %6 = alloca ptr, align 8
  %7 = alloca ptr, align 8
  %8 = alloca i32, align 4
  store ptr %0, ptr %3, align 8
  store ptr %1, ptr %4, align 8
  call void @llvm.lifetime.start.p0(i64 8, ptr %5) #8
  %9 = load ptr, ptr %3, align 8
  store ptr %9, ptr %5, align 8
  call void @llvm.lifetime.start.p0(i64 8, ptr %6) #8
  %10 = load ptr, ptr %4, align 8
  %11 = getelementptr inbounds nuw %struct.excl_count_t, ptr %10, i32 0, i32 0
  %12 = load ptr, ptr %11, align 8
  store ptr %12, ptr %6, align 8
  call void @llvm.lifetime.start.p0(i64 8, ptr %7) #8
  %13 = load ptr, ptr %6, align 8
  %14 = load ptr, ptr %5, align 8
  %15 = call ptr @xstrstr(ptr noundef %13, ptr noundef %14)
  store ptr %15, ptr %7, align 8
  call void @llvm.lifetime.start.p0(i64 4, ptr %8) #8
  %16 = load ptr, ptr %5, align 8
  %17 = call i64 @strlen(ptr noundef %16) #9
  %18 = trunc i64 %17 to i32
  store i32 %18, ptr %8, align 4
  br label %19

19:                                               ; preds = %100, %93, %69, %2
  %20 = load ptr, ptr %7, align 8
  %21 = icmp ne ptr %20, null
  br i1 %21, label %22, label %111

22:                                               ; preds = %19
  %23 = call ptr @__ctype_b_loc() #10
  %24 = load ptr, ptr %23, align 8
  %25 = load ptr, ptr %7, align 8
  %26 = load i32, ptr %8, align 4
  %27 = zext i32 %26 to i64
  %28 = getelementptr inbounds nuw i8, ptr %25, i64 %27
  %29 = load i8, ptr %28, align 1
  %30 = sext i8 %29 to i32
  %31 = sext i32 %30 to i64
  %32 = getelementptr inbounds i16, ptr %24, i64 %31
  %33 = load i16, ptr %32, align 2
  %34 = zext i16 %33 to i32
  %35 = and i32 %34, 8
  %36 = icmp ne i32 %35, 0
  br i1 %36, label %69, label %37

37:                                               ; preds = %22
  %38 = load ptr, ptr %7, align 8
  %39 = load i32, ptr %8, align 4
  %40 = zext i32 %39 to i64
  %41 = getelementptr inbounds nuw i8, ptr %38, i64 %40
  %42 = load i8, ptr %41, align 1
  %43 = sext i8 %42 to i32
  %44 = icmp eq i32 %43, 45
  br i1 %44, label %69, label %45

45:                                               ; preds = %37
  %46 = load ptr, ptr %7, align 8
  %47 = load i32, ptr %8, align 4
  %48 = zext i32 %47 to i64
  %49 = getelementptr inbounds nuw i8, ptr %46, i64 %48
  %50 = load i8, ptr %49, align 1
  %51 = sext i8 %50 to i32
  %52 = icmp eq i32 %51, 46
  br i1 %52, label %69, label %53

53:                                               ; preds = %45
  %54 = load ptr, ptr %7, align 8
  %55 = load i32, ptr %8, align 4
  %56 = zext i32 %55 to i64
  %57 = getelementptr inbounds nuw i8, ptr %54, i64 %56
  %58 = load i8, ptr %57, align 1
  %59 = sext i8 %58 to i32
  %60 = icmp eq i32 %59, 95
  br i1 %60, label %69, label %61

61:                                               ; preds = %53
  %62 = load ptr, ptr %7, align 8
  %63 = load i32, ptr %8, align 4
  %64 = zext i32 %63 to i64
  %65 = getelementptr inbounds nuw i8, ptr %62, i64 %64
  %66 = load i8, ptr %65, align 1
  %67 = sext i8 %66 to i32
  %68 = icmp eq i32 %67, 61
  br i1 %68, label %69, label %76

69:                                               ; preds = %61, %53, %45, %37, %22
  %70 = load ptr, ptr %7, align 8
  %71 = load i32, ptr %8, align 4
  %72 = zext i32 %71 to i64
  %73 = getelementptr inbounds nuw i8, ptr %70, i64 %72
  %74 = load ptr, ptr %5, align 8
  %75 = call ptr @xstrstr(ptr noundef %73, ptr noundef %74)
  store ptr %75, ptr %7, align 8
  br label %19, !llvm.loop !25

76:                                               ; preds = %61
  %77 = load ptr, ptr %7, align 8
  %78 = load ptr, ptr %6, align 8
  %79 = icmp ne ptr %77, %78
  br i1 %79, label %80, label %100

80:                                               ; preds = %76
  %81 = call ptr @__ctype_b_loc() #10
  %82 = load ptr, ptr %81, align 8
  %83 = load ptr, ptr %7, align 8
  %84 = getelementptr inbounds i8, ptr %83, i64 -1
  %85 = load i8, ptr %84, align 1
  %86 = sext i8 %85 to i32
  %87 = sext i32 %86 to i64
  %88 = getelementptr inbounds i16, ptr %82, i64 %87
  %89 = load i16, ptr %88, align 2
  %90 = zext i16 %89 to i32
  %91 = and i32 %90, 8
  %92 = icmp ne i32 %91, 0
  br i1 %92, label %93, label %100

93:                                               ; preds = %80
  %94 = load ptr, ptr %7, align 8
  %95 = load i32, ptr %8, align 4
  %96 = zext i32 %95 to i64
  %97 = getelementptr inbounds nuw i8, ptr %94, i64 %96
  %98 = load ptr, ptr %5, align 8
  %99 = call ptr @xstrstr(ptr noundef %97, ptr noundef %98)
  store ptr %99, ptr %7, align 8
  br label %19, !llvm.loop !25

100:                                              ; preds = %80, %76
  %101 = load ptr, ptr %4, align 8
  %102 = getelementptr inbounds nuw %struct.excl_count_t, ptr %101, i32 0, i32 1
  %103 = load i32, ptr %102, align 8
  %104 = add i32 %103, 1
  store i32 %104, ptr %102, align 8
  %105 = load ptr, ptr %7, align 8
  %106 = load i32, ptr %8, align 4
  %107 = zext i32 %106 to i64
  %108 = getelementptr inbounds nuw i8, ptr %105, i64 %107
  %109 = load ptr, ptr %5, align 8
  %110 = call ptr @xstrstr(ptr noundef %108, ptr noundef %109)
  store ptr %110, ptr %7, align 8
  br label %19, !llvm.loop !25

111:                                              ; preds = %19
  call void @llvm.lifetime.end.p0(i64 4, ptr %8) #8
  call void @llvm.lifetime.end.p0(i64 8, ptr %7) #8
  call void @llvm.lifetime.end.p0(i64 8, ptr %6) #8
  call void @llvm.lifetime.end.p0(i64 8, ptr %5) #8
  ret i32 0
}