; Function Attrs: nounwind uwtable
define internal noundef i32 @_get_list_excl_count(ptr noundef %0, ptr noundef captures(none) %1) #0 {
  %3 = load ptr, ptr %1, align 8
  %4 = tail call ptr @xstrstr(ptr noundef %3, ptr noundef %0) #10
  %.not36 = icmp eq ptr %4, null
  br i1 %.not36, label %._crit_edge, label %.lr.ph

.lr.ph:                                           ; preds = %2
  %5 = tail call i64 @strlen(ptr noundef nonnull dereferenceable(1) %0) #12
  %6 = tail call ptr @__ctype_b_loc() #13
  %7 = and i64 %5, 4294967295
  %8 = getelementptr inbounds nuw i8, ptr %1, i64 8
  br label %9

9:                                                ; preds = %.lr.ph, %.backedge
  %.037 = phi ptr [ %4, %.lr.ph ], [ %17, %.backedge ]
  %10 = load ptr, ptr %6, align 8
  %11 = getelementptr inbounds nuw i8, ptr %.037, i64 %7
  %12 = load i8, ptr %11, align 1
  %13 = sext i8 %12 to i64
  %14 = getelementptr inbounds i16, ptr %10, i64 %13
  %15 = load i16, ptr %14, align 2
  %.fr35 = freeze i16 %15
  %16 = and i16 %.fr35, 8
  %.not29.not = icmp eq i16 %16, 0
  br i1 %.not29.not, label %switch.early.test, label %.backedge

switch.early.test:                                ; preds = %9
  switch i8 %12, label %18 [
    i8 95, label %.backedge
    i8 61, label %.backedge
    i8 46, label %.backedge
    i8 45, label %.backedge
  ]

.backedge:                                        ; preds = %9, %switch.early.test, %switch.early.test, %switch.early.test, %switch.early.test, %19, %26
  %17 = tail call ptr @xstrstr(ptr noundef nonnull %11, ptr noundef nonnull %0) #10
  %.not = icmp eq ptr %17, null
  br i1 %.not, label %._crit_edge, label %9, !llvm.loop !24

18:                                               ; preds = %switch.early.test
  %.not30 = icmp eq ptr %.037, %3
  br i1 %.not30, label %26, label %19

19:                                               ; preds = %18
  %20 = getelementptr inbounds i8, ptr %.037, i64 -1
  %21 = load i8, ptr %20, align 1
  %22 = sext i8 %21 to i64
  %23 = getelementptr inbounds i16, ptr %10, i64 %22
  %24 = load i16, ptr %23, align 2
  %25 = and i16 %24, 8
  %.not31 = icmp eq i16 %25, 0
  br i1 %.not31, label %26, label %.backedge

26:                                               ; preds = %19, %18
  %27 = load i32, ptr %8, align 8
  %28 = add i32 %27, 1
  store i32 %28, ptr %8, align 8
  br label %.backedge

._crit_edge:                                      ; preds = %.backedge, %2
  ret i32 0
}